target datalayout = "e-m:e-p270:32:32-p271:32:32-p272:64:64-i64:64-i128:128-f80:128-n8:16:32:64-S128"
target triple = "x86_64-pc-linux-gnu"

%struct.AVInteger = type { [8 x i16] }

; Function Attrs: nounwind willreturn memory(none) uwtable
define { i64, i64 } @av_div_i(i64 %0, i64 %1, i64 %2, i64 %3) #0 {
  %5 = alloca %struct.AVInteger, align 2
  %6 = alloca %struct.AVInteger, align 2
  %7 = alloca %struct.AVInteger, align 2
  %8 = alloca %struct.AVInteger, align 2
  %9 = getelementptr inbounds nuw { i64, i64 }, ptr %6, i32 0, i32 0
  store i64 %0, ptr %9, align 2
  %10 = getelementptr inbounds nuw { i64, i64 }, ptr %6, i32 0, i32 1
  store i64 %1, ptr %10, align 2
  %11 = getelementptr inbounds nuw { i64, i64 }, ptr %7, i32 0, i32 0
  store i64 %2, ptr %11, align 2
  %12 = getelementptr inbounds nuw { i64, i64 }, ptr %7, i32 0, i32 1
  store i64 %3, ptr %12, align 2
  %13 = getelementptr inbounds nuw { i64, i64 }, ptr %6, i32 0, i32 0
  %14 = load i64, ptr %13, align 2
  %15 = getelementptr inbounds nuw { i64, i64 }, ptr %6, i32 0, i32 1
  %16 = load i64, ptr %15, align 2
  %17 = getelementptr inbounds nuw { i64, i64 }, ptr %7, i32 0, i32 0
  %18 = load i64, ptr %17, align 2
  %19 = getelementptr inbounds nuw { i64, i64 }, ptr %7, i32 0, i32 1
  %20 = load i64, ptr %19, align 2
  %21 = call { i64, i64 } @av_mod_i(ptr noundef %5, i64 %14, i64 %16, i64 %18, i64 %20)
  %22 = getelementptr inbounds nuw %struct.AVInteger, ptr %8, i32 0, i32 0
  %23 = getelementptr inbounds nuw { i64, i64 }, ptr %22, i32 0, i32 0
  %24 = extractvalue { i64, i64 } %21, 0
  store i64 %24, ptr %23, align 2
  %25 = getelementptr inbounds nuw { i64, i64 }, ptr %22, i32 0, i32 1
  %26 = extractvalue { i64, i64 } %21, 1
  store i64 %26, ptr %25, align 2
  %27 = getelementptr inbounds nuw %struct.AVInteger, ptr %5, i32 0, i32 0
  %28 = load { i64, i64 }, ptr %27, align 2
  ret { i64, i64 } %28
}