; Function Attrs: mustprogress nofree nosync nounwind willreturn memory(none) uwtable
define { i64, i64 } @av_div_i(i64 %0, i64 %1, i64 %2, i64 %3) local_unnamed_addr #4 {
  %5 = alloca %struct.AVInteger, align 8
  %6 = call { i64, i64 } @av_mod_i(ptr noundef nonnull %5, i64 %0, i64 %1, i64 %2, i64 %3)
  %.fca.0.load = load i64, ptr %5, align 8
  %.fca.0.insert = insertvalue { i64, i64 } poison, i64 %.fca.0.load, 0
  %.fca.1.gep = getelementptr inbounds nuw i8, ptr %5, i64 8
  %.fca.1.load = load i64, ptr %.fca.1.gep, align 8
  %.fca.1.insert = insertvalue { i64, i64 } %.fca.0.insert, i64 %.fca.1.load, 1
  ret { i64, i64 } %.fca.1.insert
}